target datalayout = "e-m:e-p270:32:32-p271:32:32-p272:64:64-i64:64-i128:128-f80:128-n8:16:32:64-S128"
target triple = "x86_64-pc-linux-gnu"

%class.XStrongOopStorageSetIterator = type { %class.OopStorageSetStrongParState }
%class.OopStorageSetStrongParState = type { %class.OopStorageSetParState }
%class.OopStorageSetParState = type { %struct.ValueObjArray }
%struct.ValueObjArray = type { [5 x ptr], %class.ValueObjBlock }
%class.ValueObjBlock = type { %"class.OopStorage::ParState", %class.ValueObjBlock.0 }
%"class.OopStorage::ParState" = type { %"class.OopStorage::BasicParState" }
%"class.OopStorage::BasicParState" = type { ptr, ptr, i64, i64, i32, i8, i64 }
%class.ValueObjBlock.0 = type { %"class.OopStorage::ParState", %class.ValueObjBlock.1 }
%class.ValueObjBlock.1 = type { %"class.OopStorage::ParState", %class.ValueObjBlock.2 }
%class.ValueObjBlock.2 = type { %"class.OopStorage::ParState", %class.ValueObjBlock.3 }
%class.ValueObjBlock.3 = type <{ %"class.OopStorage::ParState", %class.ValueObjBlock.4, [7 x i8] }>
%class.ValueObjBlock.4 = type { i8 }
%class.XJavaThreadsIterator = type { %class.ThreadsListHandle, i32, [4 x i8] }
%class.ThreadsListHandle = type { %class.SafeThreadsListPtr, %class.elapsedTimer }
%class.SafeThreadsListPtr = type <{ ptr, ptr, ptr, i8, i8, [6 x i8] }>
%class.elapsedTimer = type <{ i64, i64, i8, [7 x i8] }>
%class.XRootsIterator = type { %class.XParallelApply, %class.XParallelApply.8, [6 x i8], %class.XParallelApply.9, %class.XParallelApply.11, [6 x i8] }
%class.XParallelApply = type <{ %class.XStrongOopStorageSetIterator, i8, [7 x i8] }>
%class.XParallelApply.8 = type { %class.XStrongCLDsIterator, i8 }
%class.XStrongCLDsIterator = type { i8 }
%class.XParallelApply.9 = type <{ %class.XJavaThreadsIterator, i8, [7 x i8] }>
%class.XParallelApply.11 = type { %class.XNMethodsIterator, i8 }
%class.XNMethodsIterator = type { i8 }

@_ZN28XStrongOopStorageSetIteratorC1Ev = hidden unnamed_addr alias void (ptr), ptr @_ZN28XStrongOopStorageSetIteratorC2Ev
@_ZN20XJavaThreadsIteratorC1Ev = hidden unnamed_addr alias void (ptr), ptr @_ZN20XJavaThreadsIteratorC2Ev
@_ZN17XNMethodsIteratorC1Ev = hidden unnamed_addr alias void (ptr), ptr @_ZN17XNMethodsIteratorC2Ev

; Function Attrs: mustprogress nounwind uwtable
define linkonce_odr hidden void @_ZN14XParallelApplyI17XNMethodsIteratorEC2Ev(ptr noundef nonnull align 1 dereferenceable(2) %0) unnamed_addr #1 comdat align 2 {
  %2 = alloca ptr, align 8
  store ptr %0, ptr %2, align 8
  %3 = load ptr, ptr %2, align 8
  %4 = getelementptr inbounds %class.XParallelApply.11, ptr %3, i32 0, i32 0
  call void @_ZN17XNMethodsIteratorC1Ev(ptr noundef nonnull align 1 dereferenceable(1) %4)
  %5 = getelementptr inbounds %class.XParallelApply.11, ptr %3, i32 0, i32 1
  store volatile i8 0, ptr %5, align 1
  ret void
}

; Function Attrs: mustprogress nounwind uwtable
define linkonce_odr hidden void @_ZN14XParallelApplyI20XJavaThreadsIteratorEC2Ev(ptr noundef nonnull align 8 dereferenceable(65) %0) unnamed_addr #1 comdat align 2 {
  %2 = alloca ptr, align 8
  store ptr %0, ptr %2, align 8
  %3 = load ptr, ptr %2, align 8
  %4 = getelementptr inbounds %class.XParallelApply.9, ptr %3, i32 0, i32 0
  call void @_ZN20XJavaThreadsIteratorC1Ev(ptr noundef nonnull align 8 dereferenceable(60) %4)
  %5 = getelementptr inbounds %class.XParallelApply.9, ptr %3, i32 0, i32 1
  store volatile i8 0, ptr %5, align 8
  ret void
}

; Function Attrs: mustprogress nounwind uwtable
define linkonce_odr hidden void @_ZN14XParallelApplyI19XStrongCLDsIteratorEC2Ev(ptr noundef nonnull align 1 dereferenceable(2) %0) unnamed_addr #1 comdat align 2 {
  %2 = alloca ptr, align 8
  store ptr %0, ptr %2, align 8
  %3 = load ptr, ptr %2, align 8
  %4 = getelementptr inbounds %class.XParallelApply.8, ptr %3, i32 0, i32 1
  store volatile i8 0, ptr %4, align 1
  ret void
}

; Function Attrs: mustprogress nounwind uwtable
define linkonce_odr hidden void @_ZN14XParallelApplyI28XStrongOopStorageSetIteratorEC2Ev(ptr noundef nonnull align 8 dereferenceable(289) %0) unnamed_addr #1 comdat align 2 {
  %2 = alloca ptr, align 8
  store ptr %0, ptr %2, align 8
  %3 = load ptr, ptr %2, align 8
  %4 = getelementptr inbounds %class.XParallelApply, ptr %3, i32 0, i32 0
  call void @_ZN28XStrongOopStorageSetIteratorC1Ev(ptr noundef nonnull align 8 dereferenceable(288) %4)
  %5 = getelementptr inbounds %class.XParallelApply, ptr %3, i32 0, i32 1
  store volatile i8 0, ptr %5, align 8
  ret void
}

; Function Attrs: mustprogress nounwind uwtable
define hidden void @_ZN14XRootsIteratorC2Ei(ptr noundef nonnull align 8 dereferenceable(378) %0, i32 noundef %1) unnamed_addr #1 align 2 {
  %3 = alloca ptr, align 8
  %4 = alloca i32, align 4
  store ptr %0, ptr %3, align 8
  store i32 %1, ptr %4, align 4
  %5 = load ptr, ptr %3, align 8
  %6 = getelementptr inbounds %class.XRootsIterator, ptr %5, i32 0, i32 0
  call void @_ZN14XParallelApplyI28XStrongOopStorageSetIteratorEC2Ev(ptr noundef nonnull align 8 dereferenceable(289) %6)
  %7 = getelementptr inbounds %class.XRootsIterator, ptr %5, i32 0, i32 1
  call void @_ZN14XParallelApplyI19XStrongCLDsIteratorEC2Ev(ptr noundef nonnull align 1 dereferenceable(2) %7)
  %8 = getelementptr inbounds %class.XRootsIterator, ptr %5, i32 0, i32 3
  call void @_ZN14XParallelApplyI20XJavaThreadsIteratorEC2Ev(ptr noundef nonnull align 8 dereferenceable(65) %8)
  %9 = getelementptr inbounds %class.XRootsIterator, ptr %5, i32 0, i32 4
  call void @_ZN14XParallelApplyI17XNMethodsIteratorEC2Ev(ptr noundef nonnull align 1 dereferenceable(2) %9)
  %10 = load i32, ptr %4, align 4
  %11 = icmp ne i32 %10, 0
  br i1 %11, label %12, label %14

12:                                               ; preds = %2
  %13 = load i32, ptr %4, align 4
  call void @_ZN20ClassLoaderDataGraph28verify_claimed_marks_clearedEi(i32 noundef %13)
  br label %14

14:                                               ; preds = %12, %2
  ret void
}