; Function Attrs: mustprogress nounwind uwtable
define hidden void @_ZN14XRootsIteratorC2Ei(ptr noundef nonnull align 8 dereferenceable(378) %0, i32 noundef %1) unnamed_addr #1 align 2 {
  %3 = getelementptr inbounds i8, ptr %0, i64 40
  tail call void @llvm.memset.p0.i64(ptr noundef nonnull align 8 dereferenceable(288) %0, i8 0, i64 288, i1 false)
  %4 = tail call noundef ptr @_ZN13OopStorageSet11get_storageINS_8StrongIdEEEP10OopStorageT_(i32 noundef 0) #7
  %5 = tail call noundef i32 @_ZN10OopStorage13BasicParState30default_estimated_thread_countEb(i1 noundef zeroext true) #7
  tail call void @_ZN10OopStorage13BasicParStateC1EPKS_jb(ptr noundef nonnull align 8 dereferenceable(48) %3, ptr noundef %4, i32 noundef %5, i1 noundef zeroext true) #7
  %6 = getelementptr inbounds i8, ptr %0, i64 88
  %7 = getelementptr inbounds i8, ptr %0, i64 8
  tail call void @_ZN13ValueObjBlockIN10OopStorage8ParStateILb1ELb0EEELi4EEC2IN13OopStorageSet8IteratorINS5_8StrongIdEEEEET_PPS2_(ptr noundef nonnull align 8 dereferenceable(200) %6, i32 1, ptr noundef nonnull %7)
  store ptr %3, ptr %0, align 8
  %8 = getelementptr inbounds i8, ptr %0, i64 288
  store volatile i8 0, ptr %8, align 8
  %9 = getelementptr inbounds i8, ptr %0, i64 297
  store volatile i8 0, ptr %9, align 1
  %10 = getelementptr inbounds i8, ptr %0, i64 304
  %11 = tail call align 8 ptr @llvm.threadlocal.address.p0(ptr align 8 @_ZN6Thread12_thr_currentE)
  %12 = load ptr, ptr %11, align 8
  tail call void @_ZN17ThreadsListHandleC1EP6Thread(ptr noundef nonnull align 8 dereferenceable(56) %10, ptr noundef %12) #7
  %13 = getelementptr inbounds i8, ptr %0, i64 360
  store volatile i32 0, ptr %13, align 8
  %14 = getelementptr inbounds i8, ptr %0, i64 368
  store volatile i8 0, ptr %14, align 8
  %15 = load i8, ptr @ClassUnloading, align 1
  %16 = trunc i8 %15 to i1
  br i1 %16, label %_ZN14XParallelApplyI17XNMethodsIteratorEC2Ev.exit, label %17

17:                                               ; preds = %2
  tail call void @_ZN8XNMethod17nmethods_do_beginEv() #7
  br label %_ZN14XParallelApplyI17XNMethodsIteratorEC2Ev.exit

_ZN14XParallelApplyI17XNMethodsIteratorEC2Ev.exit: ; preds = %2, %17
  %18 = getelementptr inbounds i8, ptr %0, i64 377
  store volatile i8 0, ptr %18, align 1
  %.not = icmp eq i32 %1, 0
  br i1 %.not, label %20, label %19

19:                                               ; preds = %_ZN14XParallelApplyI17XNMethodsIteratorEC2Ev.exit
  tail call void @_ZN20ClassLoaderDataGraph28verify_claimed_marks_clearedEi(i32 noundef %1) #7
  br label %20

20:                                               ; preds = %19, %_ZN14XParallelApplyI17XNMethodsIteratorEC2Ev.exit
  ret void
}